; Function Attrs: nounwind uwtable
define hidden ptr @lxb_dom_document_type_interface_create(ptr nocapture noundef readonly %0) local_unnamed_addr #0 {
  %2 = getelementptr inbounds i8, ptr %0, i64 184
  %3 = load ptr, ptr %2, align 8
  %4 = tail call ptr @lexbor_mraw_calloc(ptr noundef %3, i64 noundef 144) #5
  %5 = icmp eq ptr %4, null
  br i1 %5, label %10, label %6

6:                                                ; preds = %1
  %7 = getelementptr i8, ptr %0, i64 32
  %.val = load ptr, ptr %7, align 8
  %8 = getelementptr inbounds i8, ptr %4, i64 32
  store ptr %.val, ptr %8, align 8
  %9 = getelementptr inbounds i8, ptr %4, i64 88
  store i32 10, ptr %9, align 8
  br label %10

10:                                               ; preds = %1, %6
  ret ptr %4
}